(dp0
Vengine
p1
Vpdflatex
p2
sVpackages
p3
c__builtin__
set
p4
((lp5
Vpgf
p6
aVtikz
p7
aVmulticol
p8
aVbooktabs
p9
aVamsmath
p10
aVfloat
p11
aVgeometry
p12
aVgraphicx
p13
atp14
Rp15
sVfiles_with_guttermarks
p16
g4
((lp17
V/Users/siyuan/Dropbox (Harvard University)/sparsedossa_update/figures/fig_model/./fig_model.tex
p18
aS'fig_model.tex'
p19
atp20
Rp21
sVsynctex
p22
I01
s.