(dp0
Vengine
p1
Vpdflatex
p2
sVpackages
p3
c__builtin__
set
p4
((lp5
Vpgf
p6
aVtikz
p7
aVmulticol
p8
aVbooktabs
p9
aVamsmath
p10
aVfloat
p11
aVgeometry
p12
aVxcolor
p13
aVgraphicx
p14
atp15
Rp16
sVfiles_with_guttermarks
p17
g4
((lp18
V/Users/siyuan/Dropbox (Harvard University)/sparsedossa_update/figures/fig_model/./fig_model_colored.tex
p19
aS'fig_model_colored.tex'
p20
atp21
Rp22
sVsynctex
p23
I01
s.